target datalayout = "e-m:e-p270:32:32-p271:32:32-p272:64:64-i64:64-i128:128-f80:128-n8:16:32:64-S128"
target triple = "x86_64-pc-linux-gnu"

%"class.zmq::socks_response_decoder_t" = type { [262 x i8], i64 }

@stderr = external global ptr, align 8
@.str = private unnamed_addr constant [30 x i8] c"Assertion failed: %s (%s:%d)\0A\00", align 1
@.str.2 = private unnamed_addr constant [105 x i8] c"generated/home/dtcxzyw/WorkSpace/Projects/compilers/llvm-opt-benchmark/bench/libzmq/libzmq/src/socks.cpp\00", align 1
@.str.8 = private unnamed_addr constant [45 x i8] c"atyp == 0x01 || atyp == 0x03 || atyp == 0x04\00", align 1

; Function Attrs: mustprogress uwtable
define noundef zeroext i1 @_ZNK3zmq24socks_response_decoder_t13message_readyEv(ptr noundef nonnull align 8 dereferenceable(272) %0) #2 align 2 {
  %2 = alloca i1, align 1
  %3 = alloca ptr, align 8
  %4 = alloca i8, align 1
  %5 = alloca i32, align 4
  store ptr %0, ptr %3, align 8, !tbaa !82
  %6 = load ptr, ptr %3, align 8
  %7 = getelementptr inbounds nuw %"class.zmq::socks_response_decoder_t", ptr %6, i32 0, i32 1
  %8 = load i64, ptr %7, align 8, !tbaa !84
  %9 = icmp ult i64 %8, 4
  br i1 %9, label %10, label %11

10:                                               ; preds = %1
  store i1 false, ptr %2, align 1
  br label %74

11:                                               ; preds = %1
  call void @llvm.lifetime.start.p0(i64 1, ptr %4) #14
  %12 = getelementptr inbounds nuw %"class.zmq::socks_response_decoder_t", ptr %6, i32 0, i32 0
  %13 = getelementptr inbounds [262 x i8], ptr %12, i64 0, i64 3
  %14 = load i8, ptr %13, align 1, !tbaa !8
  store i8 %14, ptr %4, align 1, !tbaa !8
  br label %15

15:                                               ; preds = %11
  %16 = load i8, ptr %4, align 1, !tbaa !8
  %17 = zext i8 %16 to i32
  %18 = icmp eq i32 %17, 1
  br i1 %18, label %27, label %19

19:                                               ; preds = %15
  %20 = load i8, ptr %4, align 1, !tbaa !8
  %21 = zext i8 %20 to i32
  %22 = icmp eq i32 %21, 3
  br i1 %22, label %27, label %23

23:                                               ; preds = %19
  %24 = load i8, ptr %4, align 1, !tbaa !8
  %25 = zext i8 %24 to i32
  %26 = icmp eq i32 %25, 4
  br label %27

27:                                               ; preds = %23, %19, %15
  %28 = phi i1 [ true, %19 ], [ true, %15 ], [ %26, %23 ]
  %29 = xor i1 %28, true
  %30 = zext i1 %29 to i64
  %31 = call i64 @llvm.expect.i64(i64 %30, i64 0)
  %32 = icmp ne i64 %31, 0
  br i1 %32, label %33, label %38

33:                                               ; preds = %27
  %34 = load ptr, ptr @stderr, align 8, !tbaa !32
  %35 = call i32 (ptr, ptr, ...) @fprintf(ptr noundef %34, ptr noundef @.str, ptr noundef @.str.8, ptr noundef @.str.2, i32 noundef 328) #14
  %36 = load ptr, ptr @stderr, align 8, !tbaa !32
  %37 = call i32 @fflush(ptr noundef %36)
  call void @_ZN3zmq9zmq_abortEPKc(ptr noundef @.str.8)
  br label %38

38:                                               ; preds = %33, %27
  br label %39

39:                                               ; preds = %38
  br label %40

40:                                               ; preds = %39
  %41 = load i8, ptr %4, align 1, !tbaa !8
  %42 = zext i8 %41 to i32
  %43 = icmp eq i32 %42, 1
  br i1 %43, label %44, label %48

44:                                               ; preds = %40
  %45 = getelementptr inbounds nuw %"class.zmq::socks_response_decoder_t", ptr %6, i32 0, i32 1
  %46 = load i64, ptr %45, align 8, !tbaa !84
  %47 = icmp eq i64 %46, 10
  store i1 %47, ptr %2, align 1
  store i32 1, ptr %5, align 4
  br label %73

48:                                               ; preds = %40
  %49 = load i8, ptr %4, align 1, !tbaa !8
  %50 = zext i8 %49 to i32
  %51 = icmp eq i32 %50, 3
  br i1 %51, label %52, label %69

52:                                               ; preds = %48
  %53 = getelementptr inbounds nuw %"class.zmq::socks_response_decoder_t", ptr %6, i32 0, i32 1
  %54 = load i64, ptr %53, align 8, !tbaa !84
  %55 = icmp ugt i64 %54, 4
  br i1 %55, label %56, label %67

56:                                               ; preds = %52
  %57 = getelementptr inbounds nuw %"class.zmq::socks_response_decoder_t", ptr %6, i32 0, i32 1
  %58 = load i64, ptr %57, align 8, !tbaa !84
  %59 = getelementptr inbounds nuw %"class.zmq::socks_response_decoder_t", ptr %6, i32 0, i32 0
  %60 = getelementptr inbounds [262 x i8], ptr %59, i64 0, i64 4
  %61 = load i8, ptr %60, align 4, !tbaa !8
  %62 = sext i8 %61 to i32
  %63 = add nsw i32 5, %62
  %64 = add i32 %63, 2
  %65 = zext i32 %64 to i64
  %66 = icmp eq i64 %58, %65
  br label %67

67:                                               ; preds = %56, %52
  %68 = phi i1 [ false, %52 ], [ %66, %56 ]
  store i1 %68, ptr %2, align 1
  store i32 1, ptr %5, align 4
  br label %73

69:                                               ; preds = %48
  %70 = getelementptr inbounds nuw %"class.zmq::socks_response_decoder_t", ptr %6, i32 0, i32 1
  %71 = load i64, ptr %70, align 8, !tbaa !84
  %72 = icmp eq i64 %71, 22
  store i1 %72, ptr %2, align 1
  store i32 1, ptr %5, align 4
  br label %73

73:                                               ; preds = %69, %67, %44
  call void @llvm.lifetime.end.p0(i64 1, ptr %4) #14
  br label %74

74:                                               ; preds = %73, %10
  %75 = load i1, ptr %2, align 1
  ret i1 %75
}