; Function Attrs: mustprogress uwtable
define noundef zeroext i1 @_ZNK3zmq24socks_response_decoder_t13message_readyEv(ptr noundef nonnull readonly align 8 captures(none) dereferenceable(272) %0) local_unnamed_addr #3 align 2 {
  %2 = getelementptr inbounds nuw i8, ptr %0, i64 264
  %3 = load i64, ptr %2, align 8, !tbaa !56
  %4 = icmp ult i64 %3, 4
  br i1 %4, label %26, label %5

5:                                                ; preds = %1
  %6 = getelementptr inbounds nuw i8, ptr %0, i64 3
  %7 = load i8, ptr %6, align 1, !tbaa !8
  switch i8 %7, label %.critedge [
    i8 3, label %14
    i8 1, label %12
    i8 4, label %23
  ]

.critedge:                                        ; preds = %5
  %8 = load ptr, ptr @stderr, align 8, !tbaa !20
  %9 = tail call i32 (ptr, ptr, ...) @fprintf(ptr noundef %8, ptr noundef nonnull @.str, ptr noundef nonnull @.str.8, ptr noundef nonnull @.str.2, i32 noundef 328) #13
  %10 = load ptr, ptr @stderr, align 8, !tbaa !20
  %11 = tail call i32 @fflush(ptr noundef %10)
  tail call void @_ZN3zmq9zmq_abortEPKc(ptr noundef nonnull @.str.8)
  %.pre = load i64, ptr %2, align 8, !tbaa !56
  br label %23

12:                                               ; preds = %5
  %13 = icmp eq i64 %3, 10
  br label %26

14:                                               ; preds = %5
  %15 = icmp ne i64 %3, 4
  %16 = getelementptr inbounds nuw i8, ptr %0, i64 4
  %17 = load i8, ptr %16, align 4
  %18 = sext i8 %17 to i64
  %19 = add nsw i64 %18, 7
  %20 = and i64 %19, 4294967295
  %21 = icmp eq i64 %3, %20
  %22 = select i1 %15, i1 %21, i1 false
  br label %26

23:                                               ; preds = %.critedge, %5
  %24 = phi i64 [ %.pre, %.critedge ], [ %3, %5 ]
  %25 = icmp eq i64 %24, 22
  br label %26

26:                                               ; preds = %12, %14, %23, %1
  %.0 = phi i1 [ false, %1 ], [ %13, %12 ], [ %22, %14 ], [ %25, %23 ]
  ret i1 %.0
}